; ModuleID = '4/2086.c'
source_filename = "4/2086.c"
target datalayout = "e-m:e-p270:32:32-p271:32:32-p272:64:64-i64:64-f80:128-n8:16:32:64-S128"
target triple = "x86_64-pc-linux-gnu"

@.str = private unnamed_addr constant [6 x i8] c"%d %d\00", align 1
@.str.1 = private unnamed_addr constant [3 x i8] c"%d\00", align 1
@.str.2 = private unnamed_addr constant [4 x i8] c"%d\0A\00", align 1

; Function Attrs: noinline nounwind uwtable
define dso_local i32 @main() #0 {
  %1 = alloca i32, align 4
  %2 = alloca [100 x [100 x i32]], align 16
  %3 = alloca i32, align 4
  %4 = alloca i32, align 4
  %5 = alloca i32, align 4
  %6 = alloca i32, align 4
  %7 = alloca i32, align 4
  %8 = alloca i32, align 4
  %9 = alloca i32, align 4
  %10 = alloca i32, align 4
  %11 = alloca i32, align 4
  store i32 0, i32* %1, align 4
  %12 = call i32 (i8*, ...) @__isoc99_scanf(i8* getelementptr inbounds ([6 x i8], [6 x i8]* @.str, i64 0, i64 0), i32* %5, i32* %6)
  store i32 0, i32* %3, align 4
  br label %13

13:                                               ; preds = %34, %0
  %14 = load i32, i32* %3, align 4
  %15 = load i32, i32* %5, align 4
  %16 = icmp slt i32 %14, %15
  br i1 %16, label %17, label %37

17:                                               ; preds = %13
  store i32 0, i32* %4, align 4
  br label %18

18:                                               ; preds = %30, %17
  %19 = load i32, i32* %4, align 4
  %20 = load i32, i32* %6, align 4
  %21 = icmp slt i32 %19, %20
  br i1 %21, label %22, label %33

22:                                               ; preds = %18
  %23 = load i32, i32* %3, align 4
  %24 = sext i32 %23 to i64
  %25 = getelementptr inbounds [100 x [100 x i32]], [100 x [100 x i32]]* %2, i64 0, i64 %24
  %26 = load i32, i32* %4, align 4
  %27 = sext i32 %26 to i64
  %28 = getelementptr inbounds [100 x i32], [100 x i32]* %25, i64 0, i64 %27
  %29 = call i32 (i8*, ...) @__isoc99_scanf(i8* getelementptr inbounds ([3 x i8], [3 x i8]* @.str.1, i64 0, i64 0), i32* %28)
  br label %30

30:                                               ; preds = %22
  %31 = load i32, i32* %4, align 4
  %32 = add nsw i32 %31, 1
  store i32 %32, i32* %4, align 4
  br label %18

33:                                               ; preds = %18
  br label %34

34:                                               ; preds = %33
  %35 = load i32, i32* %3, align 4
  %36 = add nsw i32 %35, 1
  store i32 %36, i32* %3, align 4
  br label %13

37:                                               ; preds = %13
  store i32 0, i32* %8, align 4
  br label %38

38:                                               ; preds = %68, %37
  %39 = load i32, i32* %8, align 4
  %40 = load i32, i32* %6, align 4
  %41 = icmp slt i32 %39, %40
  br i1 %41, label %42, label %71

42:                                               ; preds = %38
  store i32 0, i32* %9, align 4
  %43 = load i32, i32* %8, align 4
  store i32 %43, i32* %3, align 4
  br label %44

44:                                               ; preds = %62, %42
  %45 = load i32, i32* %3, align 4
  %46 = icmp sge i32 %45, 0
  br i1 %46, label %47, label %51

47:                                               ; preds = %44
  %48 = load i32, i32* %9, align 4
  %49 = load i32, i32* %5, align 4
  %50 = icmp slt i32 %48, %49
  br label %51

51:                                               ; preds = %47, %44
  %52 = phi i1 [ false, %44 ], [ %50, %47 ]
  br i1 %52, label %53, label %67

53:                                               ; preds = %51
  %54 = load i32, i32* %9, align 4
  %55 = sext i32 %54 to i64
  %56 = getelementptr inbounds [100 x [100 x i32]], [100 x [100 x i32]]* %2, i64 0, i64 %55
  %57 = load i32, i32* %3, align 4
  %58 = sext i32 %57 to i64
  %59 = getelementptr inbounds [100 x i32], [100 x i32]* %56, i64 0, i64 %58
  %60 = load i32, i32* %59, align 4
  %61 = call i32 (i8*, ...) @printf(i8* getelementptr inbounds ([4 x i8], [4 x i8]* @.str.2, i64 0, i64 0), i32 %60)
  br label %62

62:                                               ; preds = %53
  %63 = load i32, i32* %3, align 4
  %64 = add nsw i32 %63, -1
  store i32 %64, i32* %3, align 4
  %65 = load i32, i32* %9, align 4
  %66 = add nsw i32 %65, 1
  store i32 %66, i32* %9, align 4
  br label %44

67:                                               ; preds = %51
  br label %68

68:                                               ; preds = %67
  %69 = load i32, i32* %8, align 4
  %70 = add nsw i32 %69, 1
  store i32 %70, i32* %8, align 4
  br label %38

71:                                               ; preds = %38
  store i32 1, i32* %7, align 4
  br label %72

72:                                               ; preds = %104, %71
  %73 = load i32, i32* %7, align 4
  %74 = load i32, i32* %5, align 4
  %75 = icmp slt i32 %73, %74
  br i1 %75, label %76, label %107

76:                                               ; preds = %72
  %77 = load i32, i32* %6, align 4
  %78 = sub nsw i32 %77, 1
  store i32 %78, i32* %10, align 4
  %79 = load i32, i32* %7, align 4
  store i32 %79, i32* %4, align 4
  br label %80

80:                                               ; preds = %98, %76
  %81 = load i32, i32* %4, align 4
  %82 = load i32, i32* %5, align 4
  %83 = icmp slt i32 %81, %82
  br i1 %83, label %84, label %87

84:                                               ; preds = %80
  %85 = load i32, i32* %10, align 4
  %86 = icmp sge i32 %85, 0
  br label %87

87:                                               ; preds = %84, %80
  %88 = phi i1 [ false, %80 ], [ %86, %84 ]
  br i1 %88, label %89, label %103

89:                                               ; preds = %87
  %90 = load i32, i32* %4, align 4
  %91 = sext i32 %90 to i64
  %92 = getelementptr inbounds [100 x [100 x i32]], [100 x [100 x i32]]* %2, i64 0, i64 %91
  %93 = load i32, i32* %10, align 4
  %94 = sext i32 %93 to i64
  %95 = getelementptr inbounds [100 x i32], [100 x i32]* %92, i64 0, i64 %94
  %96 = load i32, i32* %95, align 4
  %97 = call i32 (i8*, ...) @printf(i8* getelementptr inbounds ([4 x i8], [4 x i8]* @.str.2, i64 0, i64 0), i32 %96)
  br label %98

98:                                               ; preds = %89
  %99 = load i32, i32* %4, align 4
  %100 = add nsw i32 %99, 1
  store i32 %100, i32* %4, align 4
  %101 = load i32, i32* %10, align 4
  %102 = add nsw i32 %101, -1
  store i32 %102, i32* %10, align 4
  br label %80

103:                                              ; preds = %87
  br label %104

104:                                              ; preds = %103
  %105 = load i32, i32* %7, align 4
  %106 = add nsw i32 %105, 1
  store i32 %106, i32* %7, align 4
  br label %72

107:                                              ; preds = %72
  %108 = call i32 (i8*, ...) @__isoc99_scanf(i8* getelementptr inbounds ([3 x i8], [3 x i8]* @.str.1, i64 0, i64 0), i32* %11)
  ret i32 0
}

declare dso_local i32 @__isoc99_scanf(i8*, ...) #1

declare dso_local i32 @printf(i8*, ...) #1


!llvm.module.flags = !{!0}
!llvm.ident = !{!1}

!0 = !{i32 1, !"wchar_size", i32 4}
!1 = !{!"clang version 10.0.0-4ubuntu1 "}
